(lp0
S'cBBT_VMware_Workload_1_5'
p1
aS'testset_data_collection_2018_01_26_10-06-35'
p2
aS'APPINIT_failure__spa_Unity_500_service_data_FNM00151800248_2018-01-26_07_26_13'
p3
aS'execution_1516877096_769981_449_0'
p4
aS'data_collection_TC_DAQ_41_VNX_SNAP_2018_01_25_12-49-10'
p5
aS'safe_dump_spa_unknown_chassis_2018-01-25_14_39_14_315_safe_dir'
p6
aS'auto_triage__Unity_450_service_data_FNM00164500910_2018-01-25_17_32_36'
p7
aS'safe_dump_spa_unknown_chassis_2018-01-25_14_26_11_13156_safe_dir'
p8
aS'data_collection_VASA_VVol_Resize_2018_01_25_09-32-49'
p9
aS'execution_1516867215_647843_5368_0'
p10
aS'Unity_500F_service_data_FNM00153900797_2018-01-24_01_43_11'
p11
aS'auto_triage__Unity_600_service_data_FNM00151800249_2018-02-06_13_41_17'
p12
aS'data_collection_VASA_VVol_Clone_2018_01_25_12-47-41'
p13
aS'APPINIT_failure__spa_Unity_600_service_data_FNM00151900390_2018-01-26_07_30_16'
p14
aS'auto_triage__UnityVSA_service_data_VIRT1718WKMMKG_2018-01-25_18_31_13'
p15
aS'data_collection_InitialConfiguration_2018_01_26_02-40-28'
p16
aS'data_collection_MCC_DAQ_RebootHosts_2018_01_25_15-06-30'
p17
aS'execution_1517000226_272156_6496_0'
p18
aS'auto_triage__Unity_500F_service_data_FNM00153900797_2018-01-25_11_38_21'
p19
aS'udoctor_UnityVSA_service_data_VIRT1742DQ7JKD_2018-01-25_11_52_40'
p20
aS'auto_triage__Unity_400_service_data_FNM00153500516_2018-01-26_07_40_01'
p21
aS'auto_triage__UnityVSA_service_data_VIRT17429Y7JHL_2018-01-25_17_16_33'
p22
aS'auto_triage__Unity_400_service_data_FNM00153600054_2018-01-26_20_29_20'
p23
aS'auto_triage__Unity_550F_service_data_FNM00164802135_2018-01-26_18_06_24'
p24
aS'auto_triage__Unity_450_service_data_FNM00164500910_2018-01-25_17_39_27'
p25
aS'auto_triage__Unity_300F_service_data_FNM00153700471_2018-01-26_19_49_13'
p26
aS'Unity_500_service_data_FNM00151003313_2018-01-25_15_11_34'
p27
aS'data_collection_CLI_StorageContainer_HappyPath_2018_01_25_06-23-51'
p28
aS'udoctor_UnityVSA_service_data_VIRT1742DQ7JKD_2018-01-25_11_06_57'
p29
aS'data_collection_VASA_VVOL_Snapshot_Prepare_Commit_without_IO_2018_01_25_15-19-51'
p30
aS'auto_triage__Unity_450_service_data_FNM00164500910_2018-01-25_20_25_41'
p31
aS'testset_data_collection_2018_01_26_16-29-14'
p32
aS'testset_data_collection_2018_01_25_13-15-16'
p33
aS'auto_triage__Unity_450F_service_data_FNM00165002084_2018-01-25_22_01_18'
p34
aS'testset_data_collection_2018_01_25_13-45-20'
p35
aS'data_collection_TC_82869_FSN_DP_SP_Faults_2018_01_25_15-30-23'
p36
aS'auto_triage_Unity_300_service_data_FNM00151003302_2018-01-26_08_05_44'
p37
aS'data_collection_VASA_VVol_fastClones_2018_01_25_08-45-27'
p38
aS'data_collection_MLUOffArraySanityTest_2018_01_25_05-33-54'
p39
aS'auto_triage__Unity_500_service_data_FNM00161800116_2018-01-25_09_06_51'
p40
aS'auto_triage__UnityVSA_service_data_VIRT1718WKMMKG_2018-01-25_20_12_04'
p41
aS'auto_triage__UnityVSA_service_data_VIRT17429Y7JHL_2018-01-25_15_26_52'
p42
aS'auto_triage__Unity_500F_service_data_FNM00153500489_2018-01-26_16_43_13'
p43
aS'data_collection_TC_1_Thin2ThickConversion_With_ManualExtensio_2018_01_25_12-51-15'
p44
aS'CCT_Parallel_Drive_Faults_1'
p45
aS'testset_data_collection_2018_01_25_09-25-50'
p46
aS'temp'
p47
aS'auto_triage__Unity_600_service_data_FNM00151900390_2018-01-26_07_41_28'
p48
aS'auto_triage__Unity_450_service_data_FNM00164500910_2018-01-25_16_39_58'
p49
aS'execution_1516908721_101768_8084_0'
p50
aS'2018-01-24_09-10-20'
p51
aS'testset_data_collection_2018_01_26_10-43-50'
p52
aS'execution_1516943751_65127_27121_0'
p53
aS'LargeAFA_CCT_Drive_ERROR'
p54
aS'data_collection_TC_1_Thin2ThickConversion_With_ManualShrink_C_2018_01_25_11-56-05'
p55
aS'execution_1516900368_951164_8084_0'
p56
aS'auto_triage__Unity_450_service_data_FNM00164500910_2018-01-25_20_07_22'
p57
aS'data_collection_MCC_DAQ_RebootHosts_2018_01_25_12-31-43'
p58
aS'spa__UnityVSA_service_data_VIRT1608NZVSEE_2018-02-06_16_49_04'
p59
aS'auto_triage__Unity_450_service_data_FNM00164500910_2018-01-25_16_13_39'
p60
aS'execution_1516944797_635354_647_0'
p61
aS'auto_triage__Unity_300_service_data_FNM00151003301_2018-01-25_20_31_33'
p62
aS'CCT_Service_Mode_GUI_1'
p63
aS'APPINIT_failure__spa_Unity_600_service_data_FNM00151900389_2018-01-26_07_25_17'
p64
aS'auto_triage__Unity_500F_service_data_FNM00153900797_2018-01-26_14_47_47'
p65
aS'testSet'
p66
aS'auto_triage__Unity_350F_service_data_FNM00164801921_2018-01-25_19_34_20'
p67
aS'data_collection_TC_FibreChannel_2k8_Lunz_Show_2018_01_25_15-05-23'
p68
aS'testSetInfo_workload'
p69
aS'APPINIT_failure__spa_Unity_300_service_data_FNM00151003302_2018-01-26_07_50_26'
p70
aS'data_collection_InitialConfiguration_2018_01_26_02-37-48'
p71
aS'auto_triage__Unity_450F_service_data_FNM00165002084_2018-01-26_00_01_26'
p72
aS'auto_triage__Unity_600_service_data_FNM00152000463_2018-01-25_08_56_03'
p73
aS'auto_triage__UnityVSA_service_data_VIRT1718WKMMKG_2018-01-25_15_15_38'
p74
aS'auto_triage__Unity_600_service_data_FNM00152000463_2018-01-25_09_09_50'
p75
aS'Unity_600_service_data_FNM00153500659_2018-01-25_18_41_41'
p76
aS'execution_1516882808_804015_27922_0'
p77
aS'data_collection_TC_01_manage_pool_contents_with_all_types_obj_2018_01_25_06-38-26'
p78
aS'execution_1516836089_395758_5368_0'
p79
aS'auto_triage__Unity_500F_service_data_FNM00153900797_2018-01-24_03_19_40'
p80
aS'execution_1516945286_941721_449_0'
p81
aS'APPINIT_failure__Unity_500_service_data_FNM00151800248_2018-01-26_07_30_04'
p82
aS'execution_1516945025_834130_6260_0'
p83
aS'auto_triage__Unity_600_service_data_FNM00153700428_2018-01-26_19_02_42'
p84
aS'data_collection_TC_1_AutoShrink_With_HWMtriggeredAutoExtend_C_2018_01_25_12-23-48'
p85
aS'testset_data_collection_2018_01_26_05-02-45'
p86
aS'auto_triage__Unity_400_service_data_APM00172822119_2018-01-26_07_41_45'
p87
aS'execution_1516867482_323867_16577_0'
p88
aS'execution_1516945721_984290_5368_0'
p89
aS'data_collection_VASA_VVOL_Snapshot_Prepare_Commit_without_IO_2018_01_25_11-11-28'
p90
aS'auto_triage__Unity_300_service_data_FNM00153400243_2018-01-25_18_47_59'
p91
aS'auto_triage__UnityVSA_service_data_VIRT17429Y7JHL_2018-01-25_15_54_25'
p92
aS'2018-01-25_04-56-55'
p93
aS'APPINIT_failure__Unity_600_service_data_FNM00151900389_2018-01-26_07_32_33'
p94
aS'data_collection_TC_1_Multiple_ManualExtend_Concurrency_thin_2018_01_25_11-01-42'
p95
aS'testset_data_collection_2018_01_25_14-32-56'
p96
aS'execution_1516894550_546465_8084_0'
p97
aS'auto_triage__Unity_550F_service_data_FNM00164600276_2018-01-25_17_34_27'
p98
aS'auto_triage__Unity_400_service_data_FNM00152000452_2018-01-26_10_45_39'
p99
aS'udoctor_UnityVSA_service_data_VIRT17182FMM66_2018-01-25_21_12_48'
p100
aS'auto_triage__Unity_450_service_data_FNM00164500910_2018-01-25_17_56_59'
p101
aS'2018-01-26_03-34-41'
p102
aS'auto_triage__Unity_300_service_data_FNM00151003301_2018-01-25_20_56_34'
p103
aS'auto_triage__UnityVSA_service_data_VIRT17429Y7JHL_2018-01-25_11_30_51'
p104
aS'data_collection_TC_DAQ_41_VNX_SNAP_2018_01_25_11-30-32'
p105
aS'data_collection_TC_1_AutoShrink_With_ManualExtension_Concurre_2018_01_25_11-29-05'
p106
aS'data_collection_CLI_NASPE_Create_Delete_FI_CP_2018_01_25_11-28-36'
p107
aS'udoctor_UnityVSA_service_data_VIRT17429Y7JHL_2018-01-25_12_02_38'
p108
aS'auto_triage__Unity_600_service_data_FNM00153400474_2018-01-25_14_26_58'
p109
aS'data_collection_VASA_VVol_Resize_2018_01_25_14-32-19'
p110
aS'auto_triage__Unity_300_service_data_FCNCH197372821_2018-01-26_13_02_13'
p111
aS'data_collection_VASA_StorageContainer_HappyPath_2018_01_25_07-09-11'
p112
aS'testset_data_collection_2018_01_26_16-29-45'
p113
aS'auto_triage__UnityVSA_service_data_VIRT1718WKMMKG_2018-01-25_10_26_24'
p114
aS'data_collection_VASA_VVOL_Snapshot_Revert_with_IO_2018_01_25_11-58-35'
p115
aS'data_collection_InitialConfiguration_2018_01_26_02-17-13'
p116
aS'auto_triage__Unity_500_service_data_FNM00151800244_2018-01-25_20_06_24'
p117
aS'udoctor_UnityVSA_service_data_VIRT1742DQ7JKD_2018-01-25_10_55_45'
p118
aS'2018-01-25_18-45-29'
p119
aS'execution_1516888689_814255_647_0'
p120
aS'auto_triage__UnityVSA_service_data_VIRT17429Y7JHL_2018-01-25_17_43_57'
p121
aS'data_collection_VASA_VVol_UpdateProfile_2018_01_25_07-57-46'
p122
aS'auto_triage__UnityVSA_service_data_VIRT1718WKMMKG_2018-01-25_13_37_43'
p123
aS'Unity_600_service_data_FNM00153500659_2018-01-24_14_13_57'
p124
aS'UnityVSA_service_data_VIRT17182FMM66_2018-01-25_19_51_22'
p125
aS'data_collection_TC_1_ManualShrink_With_HWMTriggeredAutoExtens_2018_01_25_10-34-04'
p126
aS'data_collection_TC_50321_KHP_VVNX_config_stress_vflus_2018_01_25_16-48-47'
p127
aS'auto_triage__Unity_500_service_data_FNM00151800244_2018-01-25_20_45_59'
p128
aS'auto_triage__Unity_300_service_data_FNM00153900789_2018-01-26_05_24_02'
p129
aS'auto_triage__Unity_400_service_data_FNM00153600054_2018-01-26_21_00_50'
p130
aS'Unity_450F_service_data_FNM00165002080_2018-01-24_06_39_15'
p131
aS'auto_triage__Unity_300_service_data_FNM00153400296_2018-01-26_10_04_11'
p132
aS'UnityVSA_service_data_VIRT1742DQ7JKD_2018-01-25_10_39_55'
p133
aS'execution_1516945758_43047_5368_0'
p134
aS'auto_triage__Unity_500_service_data_FNM00151800248_2018-01-26_07_38_35'
p135
aS'cmd_outputs'
p136
aS'OB-D1388_dc_2018-01-25_23-00-3'
p137
aS'data_collection_VASA_NASPE_Data_VVol_IO_2018_01_25_10-23-19'
p138
aS'auto_triage__UnityVSA_service_data_VIRT17182FMM66_2018-01-25_21_50_01'
p139
aS'APPINIT_failure__Unity_600_service_data_FNM00151900390_2018-01-26_07_34_32'
p140
aS'auto_triage__UnityVSA_service_data_VIRT1718WKMMKG_2018-01-25_19_24_31'
p141
aS'auto_triage__Unity_500_service_data_FNM00151800244_2018-01-25_20_38_58'
p142
aS'testset_data_collection_2018_01_26_10-13-53'
p143
aS'TestCases'
p144
aS'data_collection_TC_DAQ_39_PROVISIONING_2018_01_26_01-54-35'
p145
aS'auto_triage__UnityVSA_service_data_VIRT17429Y7JHL_2018-01-25_16_48_45'
p146
aS'2018-01-23_05-34-17'
p147
aS'testset_data_collection_2018_01_26_11-34-20'
p148
aS'auto_triage__Unity_600_service_data_FNM00151900389_2018-01-25_16_29_44'
p149
aS'data_collection_KittyHawkDataCollection'
p150
aS'udoctor_UnityVSA_service_data_VIRT17182FMM66_2018-01-25_21_06_19'
p151
aS'auto_triage__Unity_450_service_data_FNM00164500910_2018-01-25_20_14_15'
p152
aS'auto_triage__Unity_450_service_data_FNM00164500910_2018-01-25_17_50_04'
p153
aS'auto_triage__Unity_400_service_data_FNM00152100077_2018-01-26_10_08_45'
p154
aS'testset_data_collection_2018_01_25_07-04-22'
p155
aS'data_collection_VvnxDAQConfiguration_2018_01_25_09-24-07'
p156
aS'APPINIT_failure_Unity_300_service_data_FNM00151003302_2018-01-26_07_58_50'
p157
aS'svc_dc'
p158
aS'CCT_LayeredApps_00160_Remote_File_Replication_1'
p159
aS'Unity_350F_service_data_FNM00164801921_2018-01-24_04_13_47'
p160
aS'auto_triage__Unity_600_service_data_FNM00151900389_2018-01-25_16_37_02'
p161
aS'auto_triage__Unity_550F_service_data_FNM00164600276_2018-01-25_17_51_38'
p162
aS'Unity_300_service_data_FNM00153400243_2018-01-24_09_26_36'
p163
aS'auto_triage__UnityVSA_service_data_VIRT1718WKMMKG_2018-01-25_11_16_06'
p164
aS'auto_triage__UnityVSA_service_data_VIRT1718WKMMKG_2018-01-25_12_49_59'
p165
aS'OB-H1272_testSet_Wear_Replacement_then_Wear_Replacement'
p166
aS'auto_triage__UnityVSA_service_data_VIRT1718WKMMKG_2018-01-25_16_50_49'
p167
aS'udoctor_UnityVSA_service_data_VIRT17429Y7JHL_2018-01-25_14_37_04'
p168
aS'udoctor_UnityVSA_service_data_VIRT17182FMM66_2018-01-25_20_12_48'
p169
aS'data_collection_InitialConfiguration_2018_01_26_02-37-56'
p170
aS'execution_1516888452_484336_6260_0'
p171
aS'testset_data_collection_2018_01_26_18-57-54'
p172
aS'auto_triage__Unity_300_service_data_FNM00154000261_2018-01-26_11_47_55'
p173
aS'auto_triage__Unity_400_service_data_APM00172822119_2018-01-26_06_52_03'
p174
aS'data_collection_MCC_FaultedOps_2_2018_01_25_03-54-56'
p175
aS'auto_triage__Unity_400_service_data_FNM00152100361_2018-01-26_16_36_12'
p176
aS'auto_triage__Unity_500_service_data_FNM00153801532_2018-01-25_14_36_47'
p177
aS'OB-D1388_dc_2018-01-25_21-00-3'
p178
aS'spa'
p179
aS'spb'
p180
aS'auto_triage__Unity_400_service_data_FNM00153500513_2018-01-25_09_31_21'
p181
aS'udoctor_UnityVSA_service_data_VIRT1742DQ7JKD_2018-01-25_12_06_31'
p182
aS'auto_triage__UnityVSA_service_data_VIRT1718WKMMKG_2018-01-25_12_01_25'
p183
aS'execution_1516899395_449845_449_0'
p184
aS'Unity_650_service_data_FNM00164900847_2018-01-26_13_41_33'
p185
aS'udoctor_UnityVSA_service_data_VIRT17182FMM66_2018-01-25_20_06_17'
p186
aS'Unity_300_service_data_FNM00153400243_2018-01-24_03_26_29'
p187
aS'data_collection_InitialConfiguration_2018_01_26_02-39-08'
p188
aS'spa__UnityVSA_service_data_VIRT1608NZVSEE_2018-01-25_16_47_25'
p189
aS'auto_triage__spa__UnityVSA_service_data_VIRT1734MGTFH0_2018-01-26_07_18_07'
p190
aS'data_collection_quotaTreeCustomerArRegression_2018_01_25_12-50-30'
p191
aS'testset_data_collection_2018_01_26_06-46-32'
p192
aS'testset_data_collection_2018_01_25_14-03-12'
p193
aS'auto_triage__Unity_500_service_data_FNM00151800244_2018-01-25_20_13_17'
p194
aS'auto_triage__Unity_450_service_data_FNM00164500910_2018-01-25_16_20_28'
p195
aS'auto_triage__UnityVSA_service_data_VIRT1746NNNMGX_2018-01-26_16_36_04'
p196
aS'auto_triage__UnityVSA_service_data_VIRT1718WKMMKG_2018-01-25_17_39_54'
p197
aS'data_collection_TC_DAQ_41_VNX_SNAP_2018_01_25_15-24-51'
p198
aS'auto_triage__Unity_450F_service_data_FNM00164900865_2018-01-26_03_30_26'
p199
aS'data_collection_TC_uemcli_modify_aggregated_port_in_fsn_2018_01_25_04-30-20'
p200
aS'Unity_300_service_data_FNM00151003301_2018-01-25_01_09_57'
p201
aS'Unity_300_service_data_FNM00151003301_2018-01-25_02_02_05'
p202
aS'Unity_300_service_data_FNM00151003301_2018-01-25_00_56_58'
p203
aS'udoctor_UnityVSA_service_data_VIRT17182FMM66_2018-01-25_21_19_15'
p204
aS'data_collection_TC_FS_CONFIGURATION_2018_01_26_13-04-51'
p205
aS'auto_triage__Unity_450_service_data_FNM00164500910_2018-01-25_16_31_28'
p206
aS'execution_1516902713_224555_5368_0'
p207
aS'execution_1516998364_185248_6496_0'
p208
aS'auto_triage__Unity_600_service_data_FNM00151900389_2018-01-26_07_38_58'
p209
aS'APPINIT_failure__spa_Unity_400_service_data_FNM00153500516_2018-01-26_07_28_57'
p210
aS'data_collection_MCC_DAQ_RebootHosts_2018_01_25_11-12-44'
p211
aS'data_collection_InitialConfiguration_2018_01_26_03-04-40'
p212
aS'data_collection_VASA_VVol_CopyDiffs_2018_01_25_13-39-01'
p213
aS'execution_1516835411_155476_647_0'
p214
aS'auto_triage__UnityVSA_service_data_VIRT1718WKMMKG_2018-01-25_16_03_40'
p215
aS'APPINIT_failure__Unity_400_service_data_FNM00153500516_2018-01-26_07_30_52'
p216
aS'data_collection_TC_FibreChannel_IOX_2018_01_25_15-37-57'
p217
aS'auto_triage__UnityVSA_service_data_VIRT1718WKMMKG_2018-01-25_14_26_46'
p218
aS'execution_1516945609_602079_5368_0'
p219
aS'auto_triage__Unity_450_service_data_FNM00164500910_2018-01-25_20_32_36'
p220
aS'execution_1516899312_168449_27935_0'
p221
aS'auto_triage__UnityVSA_service_data_VIRT17429Y7JHL_2018-01-25_16_21_45'
p222
aS'testSetinfor'
p223
a.