(lp0
S'testset_data_collection_2018_01_12_08-45-24'
p1
aS'APPINIT_failure__Unity_350F_service_data_FNM00164600159_2018-01-11_06_35_28'
p2
aS'data_collection_InitialConfiguration_2018_01_11_01-51-57'
p3
aS'c4lx'
p4
aS'execution_1515707420_58740_8053_0'
p5
aS'execution_1515697876_777314_647_0'
p6
aS'data_collection_Install_2018_01_11_06-50-04'
p7
aS'Unity_600_service_data_FNM00153400475_2018-01-11_10_18_33'
p8
aS'execution_1515706001_756069_6496_0'
p9
aS'auto_triage__Unity_400_service_data_FNM00153900786_2018-01-12_05_46_57'
p10
aS'auto_triage__Unity_450F_service_data_FNM00165002084_2018-01-12_00_01_22'
p11
aS'auto_triage__Unity_300_service_data_FNM00153400332_2018-01-11_08_01_54'
p12
aS'auto_triage__Unity_300_service_data_APM00170709444_2018-01-12_07_56_59'
p13
aS'MNSVC_service_data_FCNCH082100134_2018-01-29_06_39_04'
p14
aS'testset_data_collection_2018_01_11_17-07-21'
p15
aS'APPINIT_failure__Unity_400_service_data_FNM00151800017_2018-01-11_06_40_32'
p16
aS'execution_1515647296_849027_27922_0'
p17
aS'hostconfcli'
p18
aS'execution_1515647211_870642_449_0'
p19
aS'2018-01-11_18-11-41'
p20
aS'OB-D1388_dc_2018-01-11_23-00-2'
p21
aS'OB-H1262-IO_only2'
p22
aS'APPINIT_failure__Unity_600_service_data_FNM00151900390_2018-01-11_06_46_13'
p23
aS'APPINIT_failure__Unity_400_service_data_FNM00153600093_2018-01-12_05_03_06'
p24
aS'APPINIT_failure__Unity_500_service_data_FNM00150902589_2018-01-11_06_44_25'
p25
aS'execution_1515646334_810239_6260_0'
p26
aS'auto_triage__Unity_450F_service_data_FNM00165002084_2018-01-08_20_01_12'
p27
aS'APPINIT_failure__Unity_300_service_data_FNM00151003302_2018-01-11_07_00_35'
p28
aS'testset_data_collection_2018_01_11_04-58-02'
p29
aS'2018-01-11_03-18-03'
p30
aS'execution_1515734573_423679_449_0'
p31
aS'data_collection_InitialConfiguration_2018_01_11_02-21-42'
p32
aS'Unity_550F_service_data_FNM00164802136_2018-01-10_09_38_27'
p33
aS'2018-01-10_20-35-26'
p34
aS'auto_triage__Unity_350F_service_data_FNM00164903268_2018-01-12_08_49_06'
p35
aS'CCT_00120_LayeredApps_Block_Remote_Replication_1'
p36
aS'testSetInfo_bootstorm'
p37
aS'ob-h1551'
p38
aS'udoctor_Unity_300_service_data_FCNCH1972C2D75_2018-01-11_22_41_09'
p39
aS'more_dc'
p40
aS'testset_data_collection_2018_01_12_05-45-59'
p41
aS'auto_triage__Unity_550F_service_data_FNM00164600276_2018-01-11_13_20_27'
p42
aS'auto_triage__Unity_300_service_data_FCNCH1972C2D75_2018-01-12_13_36_58'
p43
aS'auto_triage__Unity_300F_service_data_APM00172353634_2018-01-12_10_05_58'
p44
aS'execution_1515646532_296735_647_0'
p45
aS'spb_Unity_300_service_data_APM00164825319_2018-01-11_22_48_24'
p46
aS'data_collection_InitialConfiguration_2018_01_11_01-57-30'
p47
aS'execution_1515646656_840628_27121_0'
p48
aS'data_collection_InitialConfiguration_2018_01_11_01-50-37'
p49
aS'auto_triage__Unity_400_service_data_FNM00151300732_2018-01-11_03_12_42'
p50
aS'2018-01-10_19-45-11'
p51
aS'Unity_300_service_data_FNM00153400329_2018-01-11_07_40_26'
p52
aS'execution_1515663430_7524_8053_0'
p53
aS'auto_triage__Unity_300_service_data_FNM00153400244_2018-01-12_07_40_52'
p54
aS'data_collection_LO_Scratch_Slice_LD_104_LunSnap_Shrink_expand_2018_01_12_02-38-35'
p55
aS'execution_1515756294_30492_27922_0'
p56
aS'execution_1515637490_275695_6260_0'
p57
aS'APPINIT_failure__Unity_300_service_data_FNM00151206598_2018-01-11_07_08_52'
p58
aS'data_collection_LO_Scratch_Slice_LD_105_MultiLunCreationDeletion_2018_01_12_02-50-54'
p59
aS'OB-D1388'
p60
aS'sv2.1'
p61
aS'data_collection_InitialConfiguration_2018_01_11_02-10-53'
p62
aS'data_collection_Install_2018_01_12_02-06-08'
p63
aS'data_collection_InitialConfiguration_2018_01_11_02-17-31'
p64
aS'data_collection_HyperV_Turn_On_Off_Storm_SMB_2018_01_11_06-22-10'
p65
aS'auto_triage__Unity_300_service_data_FCNCH0972C2D91_2018-01-11_11_58_01'
p66
aS'testset_data_collection_2018_01_11_11-56-41'
p67
aS'data_collection_TC_71249_ILC_Block_IO_Multiple_IOX_2018_01_11_06-05-08'
p68
aS'auto_triage__Unity_450_service_data_FNM00164500909_2018-01-11_11_18_14'
p69
aS'auto_triage__Unity_350F_service_data_FNM00164903267_2018-01-11_10_36_56'
p70
aS'auto_triage__UnityVSA_service_data_VIRT1746NNNMGX_2018-01-12_03_27_05'
p71
aS'2018-01-11_18-58-26'
p72
aS'Unity_500_service_data_FNM00153900799_2018-01-10_21_16_00'
p73
aS'auto_triage__Unity_450F_service_data_FNM00164900869_2018-01-11_22_19_10'
p74
aS'TestCases'
p75
aS'execution_1515647521_113642_8053_0'
p76
aS'execution_1515646536_228105_449_0'
p77
aS'testset_data_collection_2018_01_12_03-11-04'
p78
aS'testset_data_collection_2018_01_11_10-34-55'
p79
aS'data_collection_KittyHawkDataCollection'
p80
aS'data_collection_TC_FibreChannel_IOX_2018_01_11_01-00-19'
p81
aS'auto_triage__UnityVSA_service_data_VIRT1738RFSDMP_2018-01-11_22_33_04'
p82
aS'Unity_300_service_data_FNM00153400243_2018-01-11_10_53_32'
p83
aS'cmd_outputs'
p84
aS'data_collection_InitialConfiguration_2018_01_11_01-50-14'
p85
aS'data_collection_TC_Midrange_78488_SnapBackup_20801_LUN_PoolOffLine_2018_01_11_04-01-58'
p86
aS'OB-D1388_dc_2018-01-08_19-00-2'
p87
aS'execution_1515648937_15114_8053_0'
p88
aS'execution_1515647023_477833_6260_0'
p89
aS'data_collection_TC_DAQ_41_VNX_SNAP_2018_01_11_15-45-31'
p90
aS'data_collection_MLUOffArraySanityTest_2018_01_11_18-26-15'
p91
aS'APPINIT_failure__Unity_600_service_data_FNM00151900388_2018-01-12_07_04_21'
p92
aS'2018-01-10_16-56-00'
p93
aS'spa'
p94
aS'spb'
p95
aS'testsetInfo_1097_1099'
p96
aS'APPINIT_failure__Unity_400_service_data_FNM00151800240_2018-01-11_07_03_38'
p97
aS'testset_data_collection_2018_01_11_16-03-25'
p98
aS'auto_triage__Unity_400_service_data_FNM00153600093_2018-01-12_07_51_59'
p99
aS'2018-01-11_18-51-06'
p100
aS'APPINIT_failure__Unity_300_service_data_FNM00151300645_2018-01-11_07_05_02'
p101
aS'auto_triage__Unity_500_service_data_FNM00150902593_2018-01-11_19_07_41'
p102
aS'Unity_300_service_data_APM00170709446_2018-01-12_08_05_12'
p103
aS'data_collection_TC_UNITY_UFS64_Limits_maxDirDepth_2018_01_11_17-19-38'
p104
aS'Unity_500_service_data_FNM00153500487_2018-01-10_13_22_35'
p105
aS'execution_1515703625_383305_27922_0'
p106
aS'auto_triage__Unity_400_service_data_FNM00153900786_2018-01-11_11_57_38'
p107
aS'APPINIT_failure__Unity_400_service_data_FNM00153500521_2018-01-11_06_50_31'
p108
aS'execution_1515739325_138122_27922_0'
p109
aS'data_collection_InitialConfiguration_2018_01_11_02-08-27'
p110
aS'auto_triage__Unity_450_service_data_FNM00164500910_2018-01-11_20_54_38'
p111
aS'RPCCT_00800_testset'
p112
aS'testset_data_collection_2018_01_12_07-37-19'
p113
aS'data_collection_TC_01_manage_pool_contents_with_all_types_obj_2018_01_12_08-35-35'
p114
aS'auto_triage__Unity_500_service_data_FNM00153900626_2018-01-12_04_36_24'
p115
aS'OB-D1093_dc_2018-01-11_07-00-13'
p116
aS'testset_data_collection_2018_01_12_04-35-18'
p117
aS'Unity_400_service_data_FNM00153600054_2018-01-10_23_46_58'
p118
aS'execution_1515666778_715884_16577_0'
p119
aS'data_collection_InitialConfiguration_2018_01_11_01-43-40'
p120
aS'execution_1515715403_757009_16577_0'
p121
aS'data_collection_TC_UNITY_23585_MOA_Automount_Cifs_withIO_2018_01_11_19-24-21'
p122
aS'auto_triage__Unity_400_service_data_FNM00152000455_2018-01-11_06_23_34'
p123
a.